target datalayout = "e-m:e-p270:32:32-p271:32:32-p272:64:64-i64:64-i128:128-f80:128-n8:16:32:64-S128"
target triple = "x86_64-unknown-linux-gnu"

; Function Attrs: mustprogress nounwind uwtable
define linkonce_odr noundef double @_ZSt4fmodIdiEN9__gnu_cxx9__promoteIDTplcvNS1_IT_Xsr3std12__is_integerIS2_EE7__valueEE6__typeELi0EcvNS1_IT0_Xsr3std12__is_integerIS5_EE7__valueEE6__typeELi0EEXsr3std12__is_integerIS8_EE7__valueEE6__typeES2_S5_(double noundef %__x, i32 noundef %__y) #0 comdat {
entry:
  %__x.addr = alloca double, align 8
  %__y.addr = alloca i32, align 4
  store double %__x, ptr %__x.addr, align 8
  store i32 %__y, ptr %__y.addr, align 4
  %0 = load double, ptr %__x.addr, align 8
  %1 = load i32, ptr %__y.addr, align 4
  %conv = sitofp i32 %1 to double
  %call = call double @fmod(double noundef %0, double noundef %conv) #7
  ret double %call
}

; Function Attrs: mustprogress nounwind uwtable
define internal noundef zeroext i1 @_ZN6hermes2vmL10isLeapYearEd(double noundef %y) #0 {
entry:
  %retval = alloca i1, align 1
  %y.addr = alloca double, align 8
  store double %y, ptr %y.addr, align 8
  %0 = load double, ptr %y.addr, align 8
  %call = call noundef double @_ZSt4fmodIdiEN9__gnu_cxx9__promoteIDTplcvNS1_IT_Xsr3std12__is_integerIS2_EE7__valueEE6__typeELi0EcvNS1_IT0_Xsr3std12__is_integerIS5_EE7__valueEE6__typeELi0EEXsr3std12__is_integerIS8_EE7__valueEE6__typeES2_S5_(double noundef %0, i32 noundef 4)
  %cmp = fcmp une double %call, 0.000000e+00
  br i1 %cmp, label %if.then, label %if.end

if.then:                                          ; preds = %entry
  store i1 false, ptr %retval, align 1
  br label %return

if.end:                                           ; preds = %entry
  %1 = load double, ptr %y.addr, align 8
  %call1 = call noundef double @_ZSt4fmodIdiEN9__gnu_cxx9__promoteIDTplcvNS1_IT_Xsr3std12__is_integerIS2_EE7__valueEE6__typeELi0EcvNS1_IT0_Xsr3std12__is_integerIS5_EE7__valueEE6__typeELi0EEXsr3std12__is_integerIS8_EE7__valueEE6__typeES2_S5_(double noundef %1, i32 noundef 100)
  %cmp2 = fcmp une double %call1, 0.000000e+00
  br i1 %cmp2, label %if.then3, label %if.end4

if.then3:                                         ; preds = %if.end
  store i1 true, ptr %retval, align 1
  br label %return

if.end4:                                          ; preds = %if.end
  %2 = load double, ptr %y.addr, align 8
  %call5 = call noundef double @_ZSt4fmodIdiEN9__gnu_cxx9__promoteIDTplcvNS1_IT_Xsr3std12__is_integerIS2_EE7__valueEE6__typeELi0EcvNS1_IT0_Xsr3std12__is_integerIS5_EE7__valueEE6__typeELi0EEXsr3std12__is_integerIS8_EE7__valueEE6__typeES2_S5_(double noundef %2, i32 noundef 400)
  %cmp6 = fcmp une double %call5, 0.000000e+00
  br i1 %cmp6, label %if.then7, label %if.end8

if.then7:                                         ; preds = %if.end4
  store i1 false, ptr %retval, align 1
  br label %return

if.end8:                                          ; preds = %if.end4
  store i1 true, ptr %retval, align 1
  br label %return

return:                                           ; preds = %if.end8, %if.then7, %if.then3, %if.then
  %3 = load i1, ptr %retval, align 1
  ret i1 %3
}

; Function Attrs: mustprogress nounwind uwtable
define hidden noundef i32 @_ZN6hermes2vm10daysInYearEd(double noundef %y) #0 {
entry:
  %y.addr = alloca double, align 8
  store double %y, ptr %y.addr, align 8
  %0 = load double, ptr %y.addr, align 8
  %call = call noundef zeroext i1 @_ZN6hermes2vmL10isLeapYearEd(double noundef %0)
  %cond = select i1 %call, i32 366, i32 365
  ret i32 %cond
}

; Function Attrs: mustprogress nounwind uwtable
define hidden noundef zeroext i1 @_ZN6hermes2vm10inLeapYearEd(double noundef %t) #0 {
entry:
  %t.addr = alloca double, align 8
  store double %t, ptr %t.addr, align 8
  %0 = load double, ptr %t.addr, align 8
  %call = call noundef double @_ZN6hermes2vm12yearFromTimeEd(double noundef %0)
  %call1 = call noundef i32 @_ZN6hermes2vm10daysInYearEd(double noundef %call)
  %cmp = icmp eq i32 %call1, 366
  ret i1 %cmp
}