; Function Attrs: mustprogress nofree nounwind memory(write) uwtable
define hidden noundef zeroext i1 @_ZN6hermes2vm10inLeapYearEd(double noundef %t) local_unnamed_addr #5 {
entry:
  %call = tail call noundef double @_ZN6hermes2vm12yearFromTimeEd(double noundef %t)
  %call.i.i.i = tail call noundef double @fmod(double noundef %call, double noundef 4.000000e+00) #17
  %cmp.i.i = fcmp une double %call.i.i.i, 0.000000e+00
  br i1 %cmp.i.i, label %_ZN6hermes2vm10daysInYearEd.exit, label %if.end.i.i

if.end.i.i:                                       ; preds = %entry
  %call.i3.i.i = tail call noundef double @fmod(double noundef %call, double noundef 1.000000e+02) #17
  %cmp2.i.i = fcmp une double %call.i3.i.i, 0.000000e+00
  br i1 %cmp2.i.i, label %_ZN6hermes2vmL10isLeapYearEd.exit.thread.i, label %_ZN6hermes2vmL10isLeapYearEd.exit.i

_ZN6hermes2vmL10isLeapYearEd.exit.i:              ; preds = %if.end.i.i
  %call.i4.i.i = tail call noundef double @fmod(double noundef %call, double noundef 4.000000e+02) #17
  %cmp6.i.i = fcmp oeq double %call.i4.i.i, 0.000000e+00
  br i1 %cmp6.i.i, label %_ZN6hermes2vmL10isLeapYearEd.exit.thread.i, label %_ZN6hermes2vm10daysInYearEd.exit

_ZN6hermes2vmL10isLeapYearEd.exit.thread.i:       ; preds = %_ZN6hermes2vmL10isLeapYearEd.exit.i, %if.end.i.i
  br label %_ZN6hermes2vm10daysInYearEd.exit

_ZN6hermes2vm10daysInYearEd.exit:                 ; preds = %entry, %_ZN6hermes2vmL10isLeapYearEd.exit.i, %_ZN6hermes2vmL10isLeapYearEd.exit.thread.i
  %cmp = phi i1 [ true, %_ZN6hermes2vmL10isLeapYearEd.exit.thread.i ], [ false, %_ZN6hermes2vmL10isLeapYearEd.exit.i ], [ false, %entry ]
  ret i1 %cmp
}